EXPORTS
    _Z10bitreverseRSt6vectorISt7complexIdESaIS1_EE @1
    _Z10dwt1_sym_mSsRSt6vectorIdSaIdEES2_S2_ @2
    _Z10dwt_2d_symRSt6vectorIS_IdSaIdEESaIS1_EEiSsRS1_S5_RS_IiSaIiEE @3
    _Z10getcoeff2dRSt6vectorIS_IdSaIdEESaIS1_EES4_S4_S4_RS1_Ri @4
    _Z10symm_ext2dRSt6vectorIS_IdSaIdEESaIS1_EES4_i @5
    _Z11circshift2dRSt6vectorIS_IdSaIdEESaIS1_EEii @6
    _Z11idwt1_sym_mSsRSt6vectorIdSaIdEES2_S2_ @7
    _Z11idwt_2d_symRSt6vectorIdSaIdEES2_SsRS_IS1_SaIS1_EERS_IiSaIiEE @8
    _Z11zero_removeRSt6vectorIS_IdSaIdEESaIS1_EES4_ @9
    _Z12branch_hp_dnSsRSt6vectorIdSaIdEES2_ @10
    _Z12branch_lp_dnSsRSt6vectorIdSaIdEES2_ @11
    _Z14dwt_output_dimRSt6vectorIS_IdSaIdEESaIS1_EERiS5_ @12
    _Z14dyadic_zpad_1dRSt6vectorIdSaIdEE @13
    _Z14dyadic_zpad_2dRSt6vectorIS_IdSaIdEESaIS1_EES4_ @14
    _Z15branch_lp_hp_upSsRSt6vectorIdSaIdEES2_S2_ @15
    _Z15dwt_output_dim2RSt6vectorIiSaIiEES2_i @16
    _Z18dwt_output_dim_symRSt6vectorIiSaIiEES2_i @17
    _Z3dwtRSt6vectorIdSaIdEEiSsS2_S2_RS_IiSaIiEE @18
    _Z3fftRSt6vectorISt7complexIdESaIS1_EEij @19
    _Z3swtRSt6vectorIdSaIdEEiSsS2_Ri @20
    _Z4dwt1SsRSt6vectorIdSaIdEES2_S2_ @21
    _Z4dwt2SsRSt6vectorIS_IdSaIdEESaIS1_EES4_S4_S4_S4_ @22
    _Z4freqRSt6vectorIdSaIdEES2_ @23
    _Z4idwtRSt6vectorIdSaIdEES2_SsS2_RS_IiSaIiEE @24
    _Z4iswtRSt6vectorIdSaIdEEiSsS2_ @25
    _Z4signi @26
    _Z5idwt1SsRSt6vectorIdSaIdEES2_S2_ @27
    _Z5idwt2SsRSt6vectorIS_IdSaIdEESaIS1_EES4_S4_S4_S4_ @28
    _Z6convolRSt6vectorIdSaIdEES2_S2_ @29
    _Z6dwt1_mSsRSt6vectorIdSaIdEES2_S2_ @30
    _Z6dwt_2dRSt6vectorIS_IdSaIdEESaIS1_EEiSsRS1_S5_RS_IiSaIiEE @31
    _Z6swt_2dRSt6vectorIS_IdSaIdEESaIS1_EEiSsRS1_ @32
    _Z6upsampRSt6vectorIdSaIdEEiS2_ @33
    _Z6vecsumRSt6vectorIdSaIdEES2_S2_ @34
    _Z7convfftRSt6vectorIdSaIdEES2_S2_ @35
    _Z7dispDWTRSt6vectorIdSaIdEERS_IS1_SaIS1_EERS_IiSaIiEES8_i @36
    _Z7dwt_symRSt6vectorIdSaIdEEiSsS2_S2_RS_IiSaIiEE @37
    _Z7idwt1_mSsRSt6vectorIdSaIdEES2_S2_ @38
    _Z7idwt_2dRSt6vectorIdSaIdEES2_SsRS_IS1_SaIS1_EERS_IiSaIiEE @39
    _Z7per_extRSt6vectorIdSaIdEEi @40
    _Z7upsamp2RSt6vectorIS_IdSaIdEESaIS1_EES4_ii @41
    _Z8convfftmRSt6vectorIdSaIdEES2_S2_ @42
    _Z8downsampRSt6vectorIdSaIdEEiS2_ @43
    _Z8dwt1_symSsRSt6vectorIdSaIdEES2_S2_ @44
    _Z8dwt2_symSsRSt6vectorIS_IdSaIdEESaIS1_EES4_S4_S4_S4_ @45
    _Z8filtcoefSsRSt6vectorIdSaIdEES2_S2_S2_ @46
    _Z8idwt_symRSt6vectorIdSaIdEES2_SsS2_RS_IiSaIiEE @47
    _Z8symm_extRSt6vectorIdSaIdEEi @48
    _Z9circshiftRSt6vectorIdSaIdEEi @49
    _Z9downsamp2RSt6vectorIS_IdSaIdEESaIS1_EES4_ii @50
    _Z9idwt1_symSsRSt6vectorIdSaIdEES2_S2_ @51
    _Z9per_ext2dRSt6vectorIS_IdSaIdEESaIS1_EES4_i @52
